; Function Attrs: nofree nounwind uwtable
define void @Macc_ConstMultGenMult(ptr noundef %0, ptr noundef %1, i32 noundef %2, i32 noundef %3, i32 noundef %4) local_unnamed_addr #4 {
  %6 = icmp slt i32 %2, 0
  %7 = tail call i32 (ptr, ptr, ...) @fprintf(ptr noundef %0, ptr noundef nonnull @.str.12, i32 noundef %4, i32 noundef %3, i32 noundef %2) #12
  %8 = tail call range(i32 0, -2147483648) i32 @llvm.abs.i32(i32 %2, i1 true)
  %9 = select i1 %6, ptr @.str.2, ptr @.str.3
  %10 = tail call i32 (ptr, ptr, ...) @fprintf(ptr noundef %0, ptr noundef nonnull @.str.13, i32 noundef %8, ptr noundef nonnull %9) #12
  %11 = add i32 %4, -1
  %12 = tail call i32 (ptr, ptr, ...) @fprintf(ptr noundef %0, ptr noundef nonnull @.str.4, i32 noundef %11) #12
  %13 = tail call i32 (ptr, ptr, ...) @fprintf(ptr noundef %0, ptr noundef nonnull @.str.6, i32 noundef %11) #12
  %14 = tail call i64 @fwrite(ptr nonnull @.str.7, i64 3, i64 1, ptr %0)
  %15 = icmp eq i32 %2, 0
  br i1 %15, label %16, label %18

16:                                               ; preds = %5
  %17 = tail call i32 (ptr, ptr, ...) @fprintf(ptr noundef %0, ptr noundef nonnull @.str.30, i32 noundef %4) #12
  br label %23

18:                                               ; preds = %5
  %19 = add i32 %11, %3
  %20 = tail call i32 (ptr, ptr, ...) @fprintf(ptr noundef %0, ptr noundef nonnull @.str.31, i32 noundef %19, i32 noundef %3, i32 noundef %11) #12
  tail call void @Macc_ConstMultGenOne_rec(ptr noundef %0, ptr noundef %1, i32 noundef %2, i32 noundef %3, i32 noundef %4)
  %21 = select i1 %6, i32 78, i32 110
  %22 = tail call i32 (ptr, ptr, ...) @fprintf(ptr noundef %0, ptr noundef nonnull @.str.32, i32 noundef %21, i32 noundef %8, i32 noundef %19, i32 noundef %3) #12
  br label %23

23:                                               ; preds = %18, %16
  %24 = tail call i64 @fwrite(ptr nonnull @.str.11, i64 11, i64 1, ptr %0)
  ret void
}